target datalayout = "e-m:e-p270:32:32-p271:32:32-p272:64:64-i64:64-i128:128-f80:128-n8:16:32:64-S128"
target triple = "x86_64-pc-linux-gnu"

@Py_IgnoreEnvironmentFlag = external global i32, align 4
@_audit_subinterpreter_interpreter_count = internal global i32 0, align 4

; Function Attrs: nounwind uwtable
define internal i32 @test_audit_subinterpreter() #0 {
  %1 = alloca i32, align 4
  store i32 0, ptr @Py_IgnoreEnvironmentFlag, align 4, !tbaa !4
  %2 = call i32 @PySys_AddAuditHook(ptr noundef @_audit_subinterpreter_hook, ptr noundef null)
  call void @_testembed_Py_InitializeFromConfig()
  %3 = call ptr @Py_NewInterpreter()
  %4 = call ptr @Py_NewInterpreter()
  %5 = call ptr @Py_NewInterpreter()
  call void @Py_Finalize()
  %6 = load volatile i32, ptr @_audit_subinterpreter_interpreter_count, align 4, !tbaa !4
  switch i32 %6, label %9 [
    i32 3, label %7
    i32 0, label %8
  ]

7:                                                ; preds = %0
  store i32 0, ptr %1, align 4
  br label %11

8:                                                ; preds = %0
  store i32 -1, ptr %1, align 4
  br label %11

9:                                                ; preds = %0
  %10 = load volatile i32, ptr @_audit_subinterpreter_interpreter_count, align 4, !tbaa !4
  store i32 %10, ptr %1, align 4
  br label %11

11:                                               ; preds = %9, %8, %7
  %12 = load i32, ptr %1, align 4
  ret i32 %12
}