; Function Attrs: nounwind uwtable
define internal i32 @test_audit_subinterpreter() #0 {
  store i32 0, ptr @Py_IgnoreEnvironmentFlag, align 4, !tbaa !4
  %1 = tail call i32 @PySys_AddAuditHook(ptr noundef nonnull @_audit_subinterpreter_hook, ptr noundef null) #20
  tail call fastcc void @_testembed_Py_InitializeFromConfig()
  %2 = tail call ptr @Py_NewInterpreter() #20
  %3 = tail call ptr @Py_NewInterpreter() #20
  %4 = tail call ptr @Py_NewInterpreter() #20
  tail call void @Py_Finalize() #20
  %5 = load volatile i32, ptr @_audit_subinterpreter_interpreter_count, align 4, !tbaa !4
  switch i32 %5, label %7 [
    i32 3, label %9
    i32 0, label %6
  ]

6:                                                ; preds = %0
  br label %9

7:                                                ; preds = %0
  %8 = load volatile i32, ptr @_audit_subinterpreter_interpreter_count, align 4, !tbaa !4
  br label %9

9:                                                ; preds = %0, %7, %6
  %.0 = phi i32 [ %8, %7 ], [ -1, %6 ], [ 0, %0 ]
  ret i32 %.0
}